target datalayout = "e-m:e-p270:32:32-p271:32:32-p272:64:64-i64:64-i128:128-f80:128-n8:16:32:64-S128"
target triple = "x86_64-pc-linux-gnu"

%struct.ForEachState = type { ptr, i32 }
%union.ListCell = type { ptr }
%struct.List = type { i32, i32, i32, ptr, [0 x %union.ListCell] }
%struct.A_Const = type { i32, %union.ValUnion, i8, i32 }
%union.ValUnion = type { %struct.Float }
%struct.Float = type { i32, ptr }
%struct.String = type { i32, ptr }
%struct.StringInfoData = type { ptr, i32, i32, i32 }
%struct.config_generic = type { ptr, i32, i32, ptr, ptr, i32, i32, i32, i32, i32, i32, i32, i32, i32, ptr, ptr, %struct.dlist_node, %struct.slist_node, %struct.slist_node, ptr, ptr, i32 }
%struct.dlist_node = type { ptr, ptr }
%struct.slist_node = type { ptr }
%struct.Node = type { i32 }
%struct.TypeCast = type { i32, ptr, ptr, i32 }
%struct.Integer = type { i32, i32 }

@.str.1 = private unnamed_addr constant [12 x i8] c"guc_funcs.c\00", align 1
@.str.43 = private unnamed_addr constant [31 x i8] c"SET %s takes only one argument\00", align 1
@__func__.flatten_set_variable_args = private unnamed_addr constant [26 x i8] c"flatten_set_variable_args\00", align 1
@.str.44 = private unnamed_addr constant [3 x i8] c", \00", align 1
@.str.45 = private unnamed_addr constant [27 x i8] c"unrecognized node type: %d\00", align 1
@.str.46 = private unnamed_addr constant [3 x i8] c"%d\00", align 1
@.str.47 = private unnamed_addr constant [14 x i8] c"INTERVAL '%s'\00", align 1

; Function Attrs: inlinehint nounwind uwtable
define internal ptr @DatumGetPointer(i64 noundef %0) #6 {
  %2 = alloca i64, align 8
  store i64 %0, ptr %2, align 8
  %3 = load i64, ptr %2, align 8
  %4 = inttoptr i64 %3 to ptr
  ret ptr %4
}

; Function Attrs: inlinehint nounwind uwtable
define internal i64 @PointerGetDatum(ptr noundef %0) #6 {
  %2 = alloca ptr, align 8
  store ptr %0, ptr %2, align 8
  %3 = load ptr, ptr %2, align 8
  %4 = ptrtoint ptr %3 to i64
  ret i64 %4
}

; Function Attrs: inlinehint nounwind uwtable
define internal ptr @DatumGetCString(i64 noundef %0) #6 {
  %2 = alloca i64, align 8
  store i64 %0, ptr %2, align 8
  %3 = load i64, ptr %2, align 8
  %4 = call ptr @DatumGetPointer(i64 noundef %3)
  ret ptr %4
}

; Function Attrs: inlinehint nounwind uwtable
define internal i64 @Int32GetDatum(i32 noundef %0) #6 {
  %2 = alloca i32, align 4
  store i32 %0, ptr %2, align 4
  %3 = load i32, ptr %2, align 4
  %4 = sext i32 %3 to i64
  ret i64 %4
}

; Function Attrs: inlinehint nounwind uwtable
define internal i64 @ObjectIdGetDatum(i32 noundef %0) #6 {
  %2 = alloca i32, align 4
  store i32 %0, ptr %2, align 4
  %3 = load i32, ptr %2, align 4
  %4 = zext i32 %3 to i64
  ret i64 %4
}

; Function Attrs: inlinehint nounwind uwtable
define internal i64 @CStringGetDatum(ptr noundef %0) #6 {
  %2 = alloca ptr, align 8
  store ptr %0, ptr %2, align 8
  %3 = load ptr, ptr %2, align 8
  %4 = call i64 @PointerGetDatum(ptr noundef %3)
  ret i64 %4
}

; Function Attrs: inlinehint nounwind uwtable
define internal ptr @list_head(ptr noundef %0) #6 {
  %2 = alloca ptr, align 8
  store ptr %0, ptr %2, align 8
  %3 = load ptr, ptr %2, align 8
  %4 = icmp ne ptr %3, null
  br i1 %4, label %5, label %10

5:                                                ; preds = %1
  %6 = load ptr, ptr %2, align 8
  %7 = getelementptr inbounds nuw %struct.List, ptr %6, i32 0, i32 3
  %8 = load ptr, ptr %7, align 8
  %9 = getelementptr inbounds %union.ListCell, ptr %8, i64 0
  br label %11

10:                                               ; preds = %1
  br label %11

11:                                               ; preds = %10, %5
  %12 = phi ptr [ %9, %5 ], [ null, %10 ]
  ret ptr %12
}

; Function Attrs: inlinehint nounwind uwtable
define internal i32 @list_length(ptr noundef %0) #6 {
  %2 = alloca ptr, align 8
  store ptr %0, ptr %2, align 8
  %3 = load ptr, ptr %2, align 8
  %4 = icmp ne ptr %3, null
  br i1 %4, label %5, label %9

5:                                                ; preds = %1
  %6 = load ptr, ptr %2, align 8
  %7 = getelementptr inbounds nuw %struct.List, ptr %6, i32 0, i32 1
  %8 = load i32, ptr %7, align 4
  br label %10

9:                                                ; preds = %1
  br label %10

10:                                               ; preds = %9, %5
  %11 = phi i32 [ %8, %5 ], [ 0, %9 ]
  ret i32 %11
}

; Function Attrs: nounwind uwtable
define internal ptr @flatten_set_variable_args(ptr noundef %0, ptr noundef %1) #0 {
  %3 = alloca ptr, align 8
  %4 = alloca ptr, align 8
  %5 = alloca ptr, align 8
  %6 = alloca ptr, align 8
  %7 = alloca i32, align 4
  %8 = alloca %struct.StringInfoData, align 8
  %9 = alloca ptr, align 8
  %10 = alloca i32, align 4
  %11 = alloca %struct.ForEachState, align 8
  %12 = alloca ptr, align 8
  %13 = alloca ptr, align 8
  %14 = alloca ptr, align 8
  %15 = alloca ptr, align 8
  %16 = alloca ptr, align 8
  %17 = alloca i32, align 4
  %18 = alloca i32, align 4
  %19 = alloca i64, align 8
  %20 = alloca ptr, align 8
  store ptr %0, ptr %4, align 8
  store ptr %1, ptr %5, align 8
  call void @llvm.lifetime.start.p0(i64 8, ptr %6) #7
  call void @llvm.lifetime.start.p0(i64 4, ptr %7) #7
  call void @llvm.lifetime.start.p0(i64 24, ptr %8) #7
  call void @llvm.lifetime.start.p0(i64 8, ptr %9) #7
  %21 = load ptr, ptr %5, align 8
  %22 = icmp eq ptr %21, null
  br i1 %22, label %23, label %24

23:                                               ; preds = %2
  store ptr null, ptr %3, align 8
  store i32 1, ptr %10, align 4
  br label %195

24:                                               ; preds = %2
  %25 = load ptr, ptr %4, align 8
  %26 = call ptr @find_option(ptr noundef %25, i1 noundef zeroext false, i1 noundef zeroext true, i32 noundef 19)
  store ptr %26, ptr %6, align 8
  %27 = load ptr, ptr %6, align 8
  %28 = icmp ne ptr %27, null
  br i1 %28, label %29, label %33

29:                                               ; preds = %24
  %30 = load ptr, ptr %6, align 8
  %31 = getelementptr inbounds nuw %struct.config_generic, ptr %30, i32 0, i32 5
  %32 = load i32, ptr %31, align 8
  store i32 %32, ptr %7, align 4
  br label %34

33:                                               ; preds = %24
  store i32 0, ptr %7, align 4
  br label %34

34:                                               ; preds = %33, %29
  %35 = load i32, ptr %7, align 4
  %36 = and i32 %35, 1
  %37 = icmp eq i32 %36, 0
  br i1 %37, label %38, label %55

38:                                               ; preds = %34
  %39 = load ptr, ptr %5, align 8
  %40 = call i32 @list_length(ptr noundef %39)
  %41 = icmp ne i32 %40, 1
  br i1 %41, label %42, label %55

42:                                               ; preds = %38
  br label %43

43:                                               ; preds = %42
  br i1 true, label %44, label %46

44:                                               ; preds = %43
  %45 = call zeroext i1 @errstart_cold(i32 noundef 21, ptr noundef null) #8
  br i1 %45, label %48, label %52

46:                                               ; preds = %43
  %47 = call zeroext i1 @errstart(i32 noundef 21, ptr noundef null)
  br i1 %47, label %48, label %52

48:                                               ; preds = %46, %44
  %49 = call i32 @errcode(i32 noundef 50856066)
  %50 = load ptr, ptr %4, align 8
  %51 = call i32 (ptr, ...) @errmsg(ptr noundef @.str.43, ptr noundef %50)
  call void @errfinish(ptr noundef @.str.1, i32 noundef 218, ptr noundef @__func__.flatten_set_variable_args)
  br label %52

52:                                               ; preds = %48, %46, %44
  unreachable

53:                                               ; No predecessors!
  br label %54

54:                                               ; preds = %53
  br label %55

55:                                               ; preds = %54, %38, %34
  call void @initStringInfo(ptr noundef %8)
  call void @llvm.lifetime.start.p0(i64 16, ptr %11) #7
  %56 = getelementptr inbounds nuw %struct.ForEachState, ptr %11, i32 0, i32 0
  %57 = load ptr, ptr %5, align 8
  store ptr %57, ptr %56, align 8
  %58 = getelementptr inbounds nuw %struct.ForEachState, ptr %11, i32 0, i32 1
  store i32 0, ptr %58, align 8
  %59 = getelementptr i8, ptr %11, i64 12
  call void @llvm.memset.p0.i64(ptr align 4 %59, i8 0, i64 4, i1 false)
  br label %60

60:                                               ; preds = %188, %55
  %61 = getelementptr inbounds nuw %struct.ForEachState, ptr %11, i32 0, i32 0
  %62 = load ptr, ptr %61, align 8
  %63 = icmp ne ptr %62, null
  br i1 %63, label %64, label %81

64:                                               ; preds = %60
  %65 = getelementptr inbounds nuw %struct.ForEachState, ptr %11, i32 0, i32 1
  %66 = load i32, ptr %65, align 8
  %67 = getelementptr inbounds nuw %struct.ForEachState, ptr %11, i32 0, i32 0
  %68 = load ptr, ptr %67, align 8
  %69 = getelementptr inbounds nuw %struct.List, ptr %68, i32 0, i32 1
  %70 = load i32, ptr %69, align 4
  %71 = icmp slt i32 %66, %70
  br i1 %71, label %72, label %81

72:                                               ; preds = %64
  %73 = getelementptr inbounds nuw %struct.ForEachState, ptr %11, i32 0, i32 0
  %74 = load ptr, ptr %73, align 8
  %75 = getelementptr inbounds nuw %struct.List, ptr %74, i32 0, i32 3
  %76 = load ptr, ptr %75, align 8
  %77 = getelementptr inbounds nuw %struct.ForEachState, ptr %11, i32 0, i32 1
  %78 = load i32, ptr %77, align 8
  %79 = sext i32 %78 to i64
  %80 = getelementptr inbounds %union.ListCell, ptr %76, i64 %79
  store ptr %80, ptr %9, align 8
  br label %82

81:                                               ; preds = %64, %60
  store ptr null, ptr %9, align 8
  br label %82

82:                                               ; preds = %81, %72
  %83 = phi i32 [ 1, %72 ], [ 0, %81 ]
  %84 = icmp ne i32 %83, 0
  br i1 %84, label %86, label %85

85:                                               ; preds = %82
  store i32 4, ptr %10, align 4
  call void @llvm.lifetime.end.p0(i64 16, ptr %11) #7
  br label %192

86:                                               ; preds = %82
  call void @llvm.lifetime.start.p0(i64 8, ptr %12) #7
  %87 = load ptr, ptr %9, align 8
  %88 = load ptr, ptr %87, align 8
  store ptr %88, ptr %12, align 8
  call void @llvm.lifetime.start.p0(i64 8, ptr %13) #7
  call void @llvm.lifetime.start.p0(i64 8, ptr %14) #7
  store ptr null, ptr %14, align 8
  call void @llvm.lifetime.start.p0(i64 8, ptr %15) #7
  %89 = load ptr, ptr %9, align 8
  %90 = load ptr, ptr %5, align 8
  %91 = call ptr @list_head(ptr noundef %90)
  %92 = icmp ne ptr %89, %91
  br i1 %92, label %93, label %94

93:                                               ; preds = %86
  call void @appendStringInfoString(ptr noundef %8, ptr noundef @.str.44)
  br label %94

94:                                               ; preds = %93, %86
  %95 = load ptr, ptr %12, align 8
  %96 = getelementptr inbounds nuw %struct.Node, ptr %95, i32 0, i32 0
  %97 = load i32, ptr %96, align 4
  %98 = icmp eq i32 %97, 73
  br i1 %98, label %99, label %107

99:                                               ; preds = %94
  call void @llvm.lifetime.start.p0(i64 8, ptr %16) #7
  %100 = load ptr, ptr %12, align 8
  store ptr %100, ptr %16, align 8
  %101 = load ptr, ptr %16, align 8
  %102 = getelementptr inbounds nuw %struct.TypeCast, ptr %101, i32 0, i32 1
  %103 = load ptr, ptr %102, align 8
  store ptr %103, ptr %12, align 8
  %104 = load ptr, ptr %16, align 8
  %105 = getelementptr inbounds nuw %struct.TypeCast, ptr %104, i32 0, i32 2
  %106 = load ptr, ptr %105, align 8
  store ptr %106, ptr %14, align 8
  call void @llvm.lifetime.end.p0(i64 8, ptr %16) #7
  br label %107

107:                                              ; preds = %99, %94
  %108 = load ptr, ptr %12, align 8
  %109 = getelementptr inbounds nuw %struct.Node, ptr %108, i32 0, i32 0
  %110 = load i32, ptr %109, align 4
  %111 = icmp eq i32 %110, 72
  br i1 %111, label %126, label %112

112:                                              ; preds = %107
  br label %113

113:                                              ; preds = %112
  br i1 true, label %114, label %116

114:                                              ; preds = %113
  %115 = call zeroext i1 @errstart_cold(i32 noundef 21, ptr noundef null) #8
  br i1 %115, label %118, label %123

116:                                              ; preds = %113
  %117 = call zeroext i1 @errstart(i32 noundef 21, ptr noundef null)
  br i1 %117, label %118, label %123

118:                                              ; preds = %116, %114
  %119 = load ptr, ptr %12, align 8
  %120 = getelementptr inbounds nuw %struct.Node, ptr %119, i32 0, i32 0
  %121 = load i32, ptr %120, align 4
  %122 = call i32 (ptr, ...) @errmsg_internal(ptr noundef @.str.45, i32 noundef %121)
  call void @errfinish(ptr noundef @.str.1, i32 noundef 246, ptr noundef @__func__.flatten_set_variable_args)
  br label %123

123:                                              ; preds = %118, %116, %114
  unreachable

124:                                              ; No predecessors!
  br label %125

125:                                              ; preds = %124
  br label %126

126:                                              ; preds = %125, %107
  %127 = load ptr, ptr %12, align 8
  store ptr %127, ptr %15, align 8
  %128 = load ptr, ptr %15, align 8
  %129 = getelementptr inbounds nuw %struct.A_Const, ptr %128, i32 0, i32 1
  %130 = getelementptr inbounds nuw %struct.Node, ptr %129, i32 0, i32 0
  %131 = load i32, ptr %130, align 8
  switch i32 %131, label %172 [
    i32 464, label %132
    i32 465, label %137
    i32 467, label %142
  ]

132:                                              ; preds = %126
  %133 = load ptr, ptr %15, align 8
  %134 = getelementptr inbounds nuw %struct.A_Const, ptr %133, i32 0, i32 1
  %135 = getelementptr inbounds nuw %struct.Integer, ptr %134, i32 0, i32 1
  %136 = load i32, ptr %135, align 4
  call void (ptr, ptr, ...) @appendStringInfo(ptr noundef %8, ptr noundef @.str.46, i32 noundef %136)
  br label %187

137:                                              ; preds = %126
  %138 = load ptr, ptr %15, align 8
  %139 = getelementptr inbounds nuw %struct.A_Const, ptr %138, i32 0, i32 1
  %140 = getelementptr inbounds nuw %struct.Float, ptr %139, i32 0, i32 1
  %141 = load ptr, ptr %140, align 8
  call void @appendStringInfoString(ptr noundef %8, ptr noundef %141)
  br label %187

142:                                              ; preds = %126
  %143 = load ptr, ptr %15, align 8
  %144 = getelementptr inbounds nuw %struct.A_Const, ptr %143, i32 0, i32 1
  %145 = getelementptr inbounds nuw %struct.String, ptr %144, i32 0, i32 1
  %146 = load ptr, ptr %145, align 8
  store ptr %146, ptr %13, align 8
  %147 = load ptr, ptr %14, align 8
  %148 = icmp ne ptr %147, null
  br i1 %148, label %149, label %161

149:                                              ; preds = %142
  call void @llvm.lifetime.start.p0(i64 4, ptr %17) #7
  call void @llvm.lifetime.start.p0(i64 4, ptr %18) #7
  call void @llvm.lifetime.start.p0(i64 8, ptr %19) #7
  call void @llvm.lifetime.start.p0(i64 8, ptr %20) #7
  %150 = load ptr, ptr %14, align 8
  call void @typenameTypeIdAndMod(ptr noundef null, ptr noundef %150, ptr noundef %17, ptr noundef %18)
  %151 = load ptr, ptr %13, align 8
  %152 = call i64 @CStringGetDatum(ptr noundef %151)
  %153 = call i64 @ObjectIdGetDatum(i32 noundef 0)
  %154 = load i32, ptr %18, align 4
  %155 = call i64 @Int32GetDatum(i32 noundef %154)
  %156 = call i64 @DirectFunctionCall3Coll(ptr noundef @interval_in, i32 noundef 0, i64 noundef %152, i64 noundef %153, i64 noundef %155)
  store i64 %156, ptr %19, align 8
  %157 = load i64, ptr %19, align 8
  %158 = call i64 @DirectFunctionCall1Coll(ptr noundef @interval_out, i32 noundef 0, i64 noundef %157)
  %159 = call ptr @DatumGetCString(i64 noundef %158)
  store ptr %159, ptr %20, align 8
  %160 = load ptr, ptr %20, align 8
  call void (ptr, ptr, ...) @appendStringInfo(ptr noundef %8, ptr noundef @.str.47, ptr noundef %160)
  call void @llvm.lifetime.end.p0(i64 8, ptr %20) #7
  call void @llvm.lifetime.end.p0(i64 8, ptr %19) #7
  call void @llvm.lifetime.end.p0(i64 4, ptr %18) #7
  call void @llvm.lifetime.end.p0(i64 4, ptr %17) #7
  br label %171

161:                                              ; preds = %142
  %162 = load i32, ptr %7, align 4
  %163 = and i32 %162, 2
  %164 = icmp ne i32 %163, 0
  br i1 %164, label %165, label %168

165:                                              ; preds = %161
  %166 = load ptr, ptr %13, align 8
  %167 = call ptr @quote_identifier(ptr noundef %166)
  call void @appendStringInfoString(ptr noundef %8, ptr noundef %167)
  br label %170

168:                                              ; preds = %161
  %169 = load ptr, ptr %13, align 8
  call void @appendStringInfoString(ptr noundef %8, ptr noundef %169)
  br label %170

170:                                              ; preds = %168, %165
  br label %171

171:                                              ; preds = %170, %149
  br label %187

172:                                              ; preds = %126
  br label %173

173:                                              ; preds = %172
  br i1 true, label %174, label %176

174:                                              ; preds = %173
  %175 = call zeroext i1 @errstart_cold(i32 noundef 21, ptr noundef null) #8
  br i1 %175, label %178, label %184

176:                                              ; preds = %173
  %177 = call zeroext i1 @errstart(i32 noundef 21, ptr noundef null)
  br i1 %177, label %178, label %184

178:                                              ; preds = %176, %174
  %179 = load ptr, ptr %15, align 8
  %180 = getelementptr inbounds nuw %struct.A_Const, ptr %179, i32 0, i32 1
  %181 = getelementptr inbounds nuw %struct.Node, ptr %180, i32 0, i32 0
  %182 = load i32, ptr %181, align 8
  %183 = call i32 (ptr, ...) @errmsg_internal(ptr noundef @.str.45, i32 noundef %182)
  call void @errfinish(ptr noundef @.str.1, i32 noundef 300, ptr noundef @__func__.flatten_set_variable_args)
  br label %184

184:                                              ; preds = %178, %176, %174
  unreachable

185:                                              ; No predecessors!
  br label %186

186:                                              ; preds = %185
  br label %187

187:                                              ; preds = %186, %171, %137, %132
  call void @llvm.lifetime.end.p0(i64 8, ptr %15) #7
  call void @llvm.lifetime.end.p0(i64 8, ptr %14) #7
  call void @llvm.lifetime.end.p0(i64 8, ptr %13) #7
  call void @llvm.lifetime.end.p0(i64 8, ptr %12) #7
  br label %188

188:                                              ; preds = %187
  %189 = getelementptr inbounds nuw %struct.ForEachState, ptr %11, i32 0, i32 1
  %190 = load i32, ptr %189, align 8
  %191 = add i32 %190, 1
  store i32 %191, ptr %189, align 8
  br label %60, !llvm.loop !9

192:                                              ; preds = %85
  %193 = getelementptr inbounds nuw %struct.StringInfoData, ptr %8, i32 0, i32 0
  %194 = load ptr, ptr %193, align 8
  store ptr %194, ptr %3, align 8
  store i32 1, ptr %10, align 4
  br label %195

195:                                              ; preds = %192, %23
  call void @llvm.lifetime.end.p0(i64 8, ptr %9) #7
  call void @llvm.lifetime.end.p0(i64 24, ptr %8) #7
  call void @llvm.lifetime.end.p0(i64 4, ptr %7) #7
  call void @llvm.lifetime.end.p0(i64 8, ptr %6) #7
  %196 = load ptr, ptr %3, align 8
  ret ptr %196
}