; Function Attrs: nounwind uwtable
define internal fastcc ptr @flatten_set_variable_args(ptr noundef %0, ptr noundef readonly captures(address_is_null) %1) unnamed_addr #0 {
  %3 = alloca %struct.StringInfoData, align 8
  %4 = alloca i32, align 4
  %5 = alloca i32, align 4
  call void @llvm.lifetime.start.p0(i64 24, ptr nonnull %3) #7
  %6 = icmp eq ptr %1, null
  br i1 %6, label %76, label %7

7:                                                ; preds = %2
  %8 = tail call ptr @find_option(ptr noundef %0, i1 noundef zeroext false, i1 noundef zeroext true, i32 noundef 19) #7
  %.not = icmp eq ptr %8, null
  br i1 %.not, label %.thread, label %9

9:                                                ; preds = %7
  %10 = getelementptr inbounds nuw i8, ptr %8, i64 32
  %11 = load i32, ptr %10, align 8
  %12 = and i32 %11, 1
  %13 = icmp eq i32 %12, 0
  br i1 %13, label %.thread, label %19

.thread:                                          ; preds = %7, %9
  %.03550 = phi i32 [ %11, %9 ], [ 0, %7 ]
  %14 = getelementptr i8, ptr %1, i64 4
  %.val = load i32, ptr %14, align 4
  %.not41 = icmp eq i32 %.val, 1
  br i1 %.not41, label %19, label %15

15:                                               ; preds = %.thread
  %16 = tail call zeroext i1 @errstart_cold(i32 noundef 21, ptr noundef null) #8
  tail call void @llvm.assume(i1 %16)
  %17 = tail call i32 @errcode(i32 noundef 50856066) #7
  %18 = tail call i32 (ptr, ...) @errmsg(ptr noundef nonnull @.str.43, ptr noundef %0) #7
  tail call void @errfinish(ptr noundef nonnull @.str.1, i32 noundef 218, ptr noundef nonnull @__func__.flatten_set_variable_args) #7
  unreachable

19:                                               ; preds = %.thread, %9
  %.03549 = phi i32 [ %.03550, %.thread ], [ %11, %9 ]
  call void @initStringInfo(ptr noundef nonnull %3) #7
  %20 = getelementptr inbounds nuw i8, ptr %1, i64 4
  %21 = load i32, ptr %20, align 4
  %.not4356 = icmp sgt i32 %21, 0
  br i1 %.not4356, label %.lr.ph, label %._crit_edge

.lr.ph:                                           ; preds = %19
  %22 = getelementptr inbounds nuw i8, ptr %1, i64 16
  %23 = and i32 %.03549, 2
  %.not46 = icmp eq i32 %23, 0
  br label %25

._crit_edge:                                      ; preds = %73, %19
  %24 = load ptr, ptr %3, align 8
  br label %76

25:                                               ; preds = %.lr.ph, %73
  %indvars.iv = phi i64 [ 0, %.lr.ph ], [ %indvars.iv.next, %73 ]
  %26 = load ptr, ptr %22, align 8
  %27 = getelementptr inbounds nuw %union.ListCell, ptr %26, i64 %indvars.iv
  %28 = load ptr, ptr %27, align 8
  %.not44 = icmp eq i64 %indvars.iv, 0
  br i1 %.not44, label %30, label %29

29:                                               ; preds = %25
  call void @appendStringInfoString(ptr noundef nonnull %3, ptr noundef nonnull @.str.44) #7
  br label %30

30:                                               ; preds = %29, %25
  %31 = load i32, ptr %28, align 4
  %32 = icmp eq i32 %31, 73
  br i1 %32, label %33, label %38

33:                                               ; preds = %30
  %34 = getelementptr inbounds nuw i8, ptr %28, i64 8
  %35 = load ptr, ptr %34, align 8
  %36 = getelementptr inbounds nuw i8, ptr %28, i64 16
  %37 = load ptr, ptr %36, align 8
  %.pr = load i32, ptr %35, align 4
  br label %38

38:                                               ; preds = %33, %30
  %39 = phi i32 [ %.pr, %33 ], [ %31, %30 ]
  %.038 = phi ptr [ %35, %33 ], [ %28, %30 ]
  %.037 = phi ptr [ %37, %33 ], [ null, %30 ]
  %40 = icmp eq i32 %39, 72
  br i1 %40, label %45, label %41

41:                                               ; preds = %38
  %42 = call zeroext i1 @errstart_cold(i32 noundef 21, ptr noundef null) #8
  call void @llvm.assume(i1 %42)
  %43 = load i32, ptr %.038, align 4
  %44 = call i32 (ptr, ...) @errmsg_internal(ptr noundef nonnull @.str.45, i32 noundef %43) #7
  call void @errfinish(ptr noundef nonnull @.str.1, i32 noundef 246, ptr noundef nonnull @__func__.flatten_set_variable_args) #7
  unreachable

45:                                               ; preds = %38
  %46 = getelementptr inbounds nuw i8, ptr %.038, i64 8
  %47 = load i32, ptr %46, align 8
  switch i32 %47, label %68 [
    i32 464, label %48
    i32 465, label %51
    i32 467, label %54
  ]

48:                                               ; preds = %45
  %49 = getelementptr inbounds nuw i8, ptr %.038, i64 12
  %50 = load i32, ptr %49, align 4
  call void (ptr, ptr, ...) @appendStringInfo(ptr noundef nonnull %3, ptr noundef nonnull @.str.46, i32 noundef %50) #7
  br label %73

51:                                               ; preds = %45
  %52 = getelementptr inbounds nuw i8, ptr %.038, i64 16
  %53 = load ptr, ptr %52, align 8
  call void @appendStringInfoString(ptr noundef nonnull %3, ptr noundef %53) #7
  br label %73

54:                                               ; preds = %45
  %55 = getelementptr inbounds nuw i8, ptr %.038, i64 16
  %56 = load ptr, ptr %55, align 8
  %.not45 = icmp eq ptr %.037, null
  br i1 %.not45, label %64, label %57

57:                                               ; preds = %54
  call void @llvm.lifetime.start.p0(i64 4, ptr nonnull %4) #7
  call void @llvm.lifetime.start.p0(i64 4, ptr nonnull %5) #7
  call void @typenameTypeIdAndMod(ptr noundef null, ptr noundef nonnull %.037, ptr noundef nonnull %4, ptr noundef nonnull %5) #7
  %58 = ptrtoint ptr %56 to i64
  %59 = load i32, ptr %5, align 4
  %60 = sext i32 %59 to i64
  %61 = call i64 @DirectFunctionCall3Coll(ptr noundef nonnull @interval_in, i32 noundef 0, i64 noundef %58, i64 noundef 0, i64 noundef %60) #7
  %62 = call i64 @DirectFunctionCall1Coll(ptr noundef nonnull @interval_out, i32 noundef 0, i64 noundef %61) #7
  %63 = inttoptr i64 %62 to ptr
  call void (ptr, ptr, ...) @appendStringInfo(ptr noundef nonnull %3, ptr noundef nonnull @.str.47, ptr noundef %63) #7
  call void @llvm.lifetime.end.p0(i64 4, ptr nonnull %5) #7
  call void @llvm.lifetime.end.p0(i64 4, ptr nonnull %4) #7
  br label %73

64:                                               ; preds = %54
  br i1 %.not46, label %67, label %65

65:                                               ; preds = %64
  %66 = call ptr @quote_identifier(ptr noundef %56) #7
  call void @appendStringInfoString(ptr noundef nonnull %3, ptr noundef %66) #7
  br label %73

67:                                               ; preds = %64
  call void @appendStringInfoString(ptr noundef nonnull %3, ptr noundef %56) #7
  br label %73

68:                                               ; preds = %45
  %69 = getelementptr inbounds nuw i8, ptr %.038, i64 8
  %70 = call zeroext i1 @errstart_cold(i32 noundef 21, ptr noundef null) #8
  call void @llvm.assume(i1 %70)
  %71 = load i32, ptr %69, align 8
  %72 = call i32 (ptr, ...) @errmsg_internal(ptr noundef nonnull @.str.45, i32 noundef %71) #7
  call void @errfinish(ptr noundef nonnull @.str.1, i32 noundef 300, ptr noundef nonnull @__func__.flatten_set_variable_args) #7
  unreachable

73:                                               ; preds = %57, %67, %65, %51, %48
  %indvars.iv.next = add nuw nsw i64 %indvars.iv, 1
  %74 = load i32, ptr %20, align 4
  %75 = sext i32 %74 to i64
  %.not43 = icmp slt i64 %indvars.iv.next, %75
  br i1 %.not43, label %25, label %._crit_edge, !llvm.loop !6

76:                                               ; preds = %2, %._crit_edge
  %.0 = phi ptr [ %24, %._crit_edge ], [ null, %2 ]
  call void @llvm.lifetime.end.p0(i64 24, ptr nonnull %3) #7
  ret ptr %.0
}